; ModuleID = '61/312.c'
source_filename = "61/312.c"
target datalayout = "e-m:e-p270:32:32-p271:32:32-p272:64:64-i64:64-f80:128-n8:16:32:64-S128"
target triple = "x86_64-pc-linux-gnu"

@.str = private unnamed_addr constant [3 x i8] c"%d\00", align 1
@.str.1 = private unnamed_addr constant [4 x i8] c"%d\0A\00", align 1

; Function Attrs: noinline nounwind uwtable
define dso_local i32 @main() #0 {
  %1 = alloca i32, align 4
  %2 = alloca i32, align 4
  %3 = alloca i32, align 4
  %4 = alloca [20 x i32], align 16
  store i32 0, i32* %1, align 4
  %5 = call i32 (i8*, ...) @__isoc99_scanf(i8* getelementptr inbounds ([3 x i8], [3 x i8]* @.str, i64 0, i64 0), i32* %2)
  store i32 1, i32* %3, align 4
  br label %6

6:                                                ; preds = %16, %0
  %7 = load i32, i32* %3, align 4
  %8 = load i32, i32* %2, align 4
  %9 = icmp sle i32 %7, %8
  br i1 %9, label %10, label %19

10:                                               ; preds = %6
  %11 = load i32, i32* %3, align 4
  %12 = sub nsw i32 %11, 1
  %13 = sext i32 %12 to i64
  %14 = getelementptr inbounds [20 x i32], [20 x i32]* %4, i64 0, i64 %13
  %15 = call i32 (i8*, ...) @__isoc99_scanf(i8* getelementptr inbounds ([3 x i8], [3 x i8]* @.str, i64 0, i64 0), i32* %14)
  br label %16

16:                                               ; preds = %10
  %17 = load i32, i32* %3, align 4
  %18 = add nsw i32 %17, 1
  store i32 %18, i32* %3, align 4
  br label %6

19:                                               ; preds = %6
  store i32 1, i32* %3, align 4
  br label %20

20:                                               ; preds = %32, %19
  %21 = load i32, i32* %3, align 4
  %22 = load i32, i32* %2, align 4
  %23 = icmp sle i32 %21, %22
  br i1 %23, label %24, label %35

24:                                               ; preds = %20
  %25 = load i32, i32* %3, align 4
  %26 = sub nsw i32 %25, 1
  %27 = sext i32 %26 to i64
  %28 = getelementptr inbounds [20 x i32], [20 x i32]* %4, i64 0, i64 %27
  %29 = load i32, i32* %28, align 4
  %30 = call i32 @Fibonacci(i32 %29)
  %31 = call i32 (i8*, ...) @printf(i8* getelementptr inbounds ([4 x i8], [4 x i8]* @.str.1, i64 0, i64 0), i32 %30)
  br label %32

32:                                               ; preds = %24
  %33 = load i32, i32* %3, align 4
  %34 = add nsw i32 %33, 1
  store i32 %34, i32* %3, align 4
  br label %20

35:                                               ; preds = %20
  ret i32 0
}

declare dso_local i32 @__isoc99_scanf(i8*, ...) #1

declare dso_local i32 @printf(i8*, ...) #1

; Function Attrs: noinline nounwind uwtable
define dso_local i32 @Fibonacci(i32 %0) #0 {
  %2 = alloca i32, align 4
  %3 = alloca i32, align 4
  store i32 %0, i32* %2, align 4
  %4 = load i32, i32* %2, align 4
  %5 = icmp eq i32 %4, 1
  br i1 %5, label %6, label %7

6:                                                ; preds = %1
  store i32 1, i32* %3, align 4
  br label %20

7:                                                ; preds = %1
  %8 = load i32, i32* %2, align 4
  %9 = icmp eq i32 %8, 2
  br i1 %9, label %10, label %11

10:                                               ; preds = %7
  store i32 1, i32* %3, align 4
  br label %19

11:                                               ; preds = %7
  %12 = load i32, i32* %2, align 4
  %13 = sub nsw i32 %12, 1
  %14 = call i32 @Fibonacci(i32 %13)
  %15 = load i32, i32* %2, align 4
  %16 = sub nsw i32 %15, 2
  %17 = call i32 @Fibonacci(i32 %16)
  %18 = add nsw i32 %14, %17
  store i32 %18, i32* %3, align 4
  br label %19

19:                                               ; preds = %11, %10
  br label %20

20:                                               ; preds = %19, %6
  %21 = load i32, i32* %3, align 4
  ret i32 %21
}


!llvm.module.flags = !{!0}
!llvm.ident = !{!1}

!0 = !{i32 1, !"wchar_size", i32 4}
!1 = !{!"clang version 10.0.0-4ubuntu1 "}
